target datalayout = "e-m:e-p270:32:32-p271:32:32-p272:64:64-i64:64-i128:128-f80:128-n8:16:32:64-S128"
target triple = "x86_64-pc-linux-gnu"

%struct.strbuf = type { i64, i64, ptr }

@.str.4 = private unnamed_addr constant [3 x i8] c"\\f\00", align 1
@.str.5 = private unnamed_addr constant [3 x i8] c"\\r\00", align 1
@.str.6 = private unnamed_addr constant [3 x i8] c"\\n\00", align 1
@.str.7 = private unnamed_addr constant [3 x i8] c"\\t\00", align 1
@.str.8 = private unnamed_addr constant [3 x i8] c"\\v\00", align 1

; Function Attrs: inlinehint nounwind uwtable
define internal i64 @strbuf_avail(ptr noundef %0) #3 {
  %2 = alloca ptr, align 8
  store ptr %0, ptr %2, align 8, !tbaa !4
  %3 = load ptr, ptr %2, align 8, !tbaa !4
  %4 = getelementptr inbounds nuw %struct.strbuf, ptr %3, i32 0, i32 0
  %5 = load i64, ptr %4, align 8, !tbaa !37
  %6 = icmp ne i64 %5, 0
  br i1 %6, label %7, label %16

7:                                                ; preds = %1
  %8 = load ptr, ptr %2, align 8, !tbaa !4
  %9 = getelementptr inbounds nuw %struct.strbuf, ptr %8, i32 0, i32 0
  %10 = load i64, ptr %9, align 8, !tbaa !37
  %11 = load ptr, ptr %2, align 8, !tbaa !4
  %12 = getelementptr inbounds nuw %struct.strbuf, ptr %11, i32 0, i32 1
  %13 = load i64, ptr %12, align 8, !tbaa !21
  %14 = sub i64 %10, %13
  %15 = sub i64 %14, 1
  br label %17

16:                                               ; preds = %1
  br label %17

17:                                               ; preds = %16, %7
  %18 = phi i64 [ %15, %7 ], [ 0, %16 ]
  ret i64 %18
}

; Function Attrs: inlinehint nounwind uwtable
define internal void @strbuf_addstr(ptr noundef %0, ptr noundef %1) #3 {
  %3 = alloca ptr, align 8
  %4 = alloca ptr, align 8
  store ptr %0, ptr %3, align 8, !tbaa !4
  store ptr %1, ptr %4, align 8, !tbaa !9
  %5 = load ptr, ptr %3, align 8, !tbaa !4
  %6 = load ptr, ptr %4, align 8, !tbaa !9
  %7 = load ptr, ptr %4, align 8, !tbaa !9
  %8 = call i64 @strlen(ptr noundef %7) #10
  call void @strbuf_add(ptr noundef %5, ptr noundef %6, i64 noundef %8)
  ret void
}

; Function Attrs: inlinehint nounwind uwtable
define internal void @strbuf_addch(ptr noundef %0, i32 noundef %1) #3 {
  %3 = alloca ptr, align 8
  %4 = alloca i32, align 4
  store ptr %0, ptr %3, align 8, !tbaa !4
  store i32 %1, ptr %4, align 4, !tbaa !19
  %5 = load ptr, ptr %3, align 8, !tbaa !4
  %6 = call i64 @strbuf_avail(ptr noundef %5)
  %7 = icmp ne i64 %6, 0
  br i1 %7, label %10, label %8

8:                                                ; preds = %2
  %9 = load ptr, ptr %3, align 8, !tbaa !4
  call void @strbuf_grow(ptr noundef %9, i64 noundef 1)
  br label %10

10:                                               ; preds = %8, %2
  %11 = load i32, ptr %4, align 4, !tbaa !19
  %12 = trunc i32 %11 to i8
  %13 = load ptr, ptr %3, align 8, !tbaa !4
  %14 = getelementptr inbounds nuw %struct.strbuf, ptr %13, i32 0, i32 2
  %15 = load ptr, ptr %14, align 8, !tbaa !11
  %16 = load ptr, ptr %3, align 8, !tbaa !4
  %17 = getelementptr inbounds nuw %struct.strbuf, ptr %16, i32 0, i32 1
  %18 = load i64, ptr %17, align 8, !tbaa !21
  %19 = add i64 %18, 1
  store i64 %19, ptr %17, align 8, !tbaa !21
  %20 = getelementptr inbounds nuw i8, ptr %15, i64 %18
  store i8 %12, ptr %20, align 1, !tbaa !14
  %21 = load ptr, ptr %3, align 8, !tbaa !4
  %22 = getelementptr inbounds nuw %struct.strbuf, ptr %21, i32 0, i32 2
  %23 = load ptr, ptr %22, align 8, !tbaa !11
  %24 = load ptr, ptr %3, align 8, !tbaa !4
  %25 = getelementptr inbounds nuw %struct.strbuf, ptr %24, i32 0, i32 1
  %26 = load i64, ptr %25, align 8, !tbaa !21
  %27 = getelementptr inbounds nuw i8, ptr %23, i64 %26
  store i8 0, ptr %27, align 1, !tbaa !14
  ret void
}

; Function Attrs: nounwind uwtable
define dso_local void @tcl_quote_buf(ptr noundef %0, ptr noundef %1) #0 {
  %3 = alloca ptr, align 8
  %4 = alloca ptr, align 8
  %5 = alloca i8, align 1
  store ptr %0, ptr %3, align 8, !tbaa !4
  store ptr %1, ptr %4, align 8, !tbaa !9
  call void @llvm.lifetime.start.p0(i64 1, ptr %5) #9
  %6 = load ptr, ptr %3, align 8, !tbaa !4
  call void @strbuf_addch(ptr noundef %6, i32 noundef 34)
  br label %7

7:                                                ; preds = %31, %2
  %8 = load ptr, ptr %4, align 8, !tbaa !9
  %9 = getelementptr inbounds nuw i8, ptr %8, i32 1
  store ptr %9, ptr %4, align 8, !tbaa !9
  %10 = load i8, ptr %8, align 1, !tbaa !14
  store i8 %10, ptr %5, align 1, !tbaa !14
  %11 = icmp ne i8 %10, 0
  br i1 %11, label %12, label %32

12:                                               ; preds = %7
  %13 = load i8, ptr %5, align 1, !tbaa !14
  %14 = sext i8 %13 to i32
  switch i32 %14, label %17 [
    i32 91, label %15
    i32 93, label %15
    i32 123, label %15
    i32 125, label %15
    i32 36, label %15
    i32 92, label %15
    i32 34, label %15
    i32 12, label %21
    i32 13, label %23
    i32 10, label %25
    i32 9, label %27
    i32 11, label %29
  ]

15:                                               ; preds = %12, %12, %12, %12, %12, %12, %12
  %16 = load ptr, ptr %3, align 8, !tbaa !4
  call void @strbuf_addch(ptr noundef %16, i32 noundef 92)
  br label %17

17:                                               ; preds = %12, %15
  %18 = load ptr, ptr %3, align 8, !tbaa !4
  %19 = load i8, ptr %5, align 1, !tbaa !14
  %20 = sext i8 %19 to i32
  call void @strbuf_addch(ptr noundef %18, i32 noundef %20)
  br label %31

21:                                               ; preds = %12
  %22 = load ptr, ptr %3, align 8, !tbaa !4
  call void @strbuf_addstr(ptr noundef %22, ptr noundef @.str.4)
  br label %31

23:                                               ; preds = %12
  %24 = load ptr, ptr %3, align 8, !tbaa !4
  call void @strbuf_addstr(ptr noundef %24, ptr noundef @.str.5)
  br label %31

25:                                               ; preds = %12
  %26 = load ptr, ptr %3, align 8, !tbaa !4
  call void @strbuf_addstr(ptr noundef %26, ptr noundef @.str.6)
  br label %31

27:                                               ; preds = %12
  %28 = load ptr, ptr %3, align 8, !tbaa !4
  call void @strbuf_addstr(ptr noundef %28, ptr noundef @.str.7)
  br label %31

29:                                               ; preds = %12
  %30 = load ptr, ptr %3, align 8, !tbaa !4
  call void @strbuf_addstr(ptr noundef %30, ptr noundef @.str.8)
  br label %31

31:                                               ; preds = %29, %27, %25, %23, %21, %17
  br label %7, !llvm.loop !41

32:                                               ; preds = %7
  %33 = load ptr, ptr %3, align 8, !tbaa !4
  call void @strbuf_addch(ptr noundef %33, i32 noundef 34)
  call void @llvm.lifetime.end.p0(i64 1, ptr %5) #9
  ret void
}