; Function Attrs: nounwind uwtable
define dso_local void @tcl_quote_buf(ptr noundef %0, ptr noundef readonly captures(none) %1) local_unnamed_addr #0 {
  %3 = load i64, ptr %0, align 8, !tbaa !11
  %.not.i.i = icmp eq i64 %3, 0
  br i1 %.not.i.i, label %strbuf_avail.exit.thread.i, label %strbuf_avail.exit.i

strbuf_avail.exit.i:                              ; preds = %2
  %4 = getelementptr inbounds nuw i8, ptr %0, i64 8
  %5 = load i64, ptr %4, align 8, !tbaa !12
  %.neg.i = add i64 %5, 1
  %.not.i = icmp eq i64 %3, %.neg.i
  br i1 %.not.i, label %strbuf_avail.exit.thread.i, label %strbuf_addch.exit

strbuf_avail.exit.thread.i:                       ; preds = %strbuf_avail.exit.i, %2
  tail call void @strbuf_grow(ptr noundef nonnull %0, i64 noundef 1) #12
  %.phi.trans.insert.i = getelementptr inbounds nuw i8, ptr %0, i64 8
  %.pre.i = load i64, ptr %.phi.trans.insert.i, align 8, !tbaa !12
  %.pre7.i = add i64 %.pre.i, 1
  br label %strbuf_addch.exit

strbuf_addch.exit:                                ; preds = %strbuf_avail.exit.i, %strbuf_avail.exit.thread.i
  %.pre-phi.i = phi i64 [ %.pre7.i, %strbuf_avail.exit.thread.i ], [ %.neg.i, %strbuf_avail.exit.i ]
  %6 = phi i64 [ %.pre.i, %strbuf_avail.exit.thread.i ], [ %5, %strbuf_avail.exit.i ]
  %7 = getelementptr inbounds nuw i8, ptr %0, i64 16
  %8 = load ptr, ptr %7, align 8, !tbaa !4
  %9 = getelementptr inbounds nuw i8, ptr %0, i64 8
  store i64 %.pre-phi.i, ptr %9, align 8, !tbaa !12
  %10 = getelementptr inbounds nuw i8, ptr %8, i64 %6
  store i8 34, ptr %10, align 1, !tbaa !13
  %11 = load ptr, ptr %7, align 8, !tbaa !4
  %12 = load i64, ptr %9, align 8, !tbaa !12
  %13 = getelementptr inbounds nuw i8, ptr %11, i64 %12
  store i8 0, ptr %13, align 1, !tbaa !13
  br label %14

14:                                               ; preds = %.backedge, %strbuf_addch.exit
  %.0 = phi ptr [ %1, %strbuf_addch.exit ], [ %15, %.backedge ]
  %15 = getelementptr inbounds nuw i8, ptr %.0, i64 1
  %16 = load i8, ptr %.0, align 1, !tbaa !13
  switch i8 %16, label %26 [
    i8 0, label %40
    i8 91, label %17
    i8 93, label %17
    i8 123, label %17
    i8 125, label %17
    i8 36, label %17
    i8 92, label %17
    i8 34, label %17
    i8 12, label %35
    i8 13, label %36
    i8 10, label %37
    i8 9, label %38
    i8 11, label %39
  ]

17:                                               ; preds = %14, %14, %14, %14, %14, %14, %14
  %18 = load i64, ptr %0, align 8, !tbaa !11
  %.not.i.i12 = icmp eq i64 %18, 0
  br i1 %.not.i.i12, label %strbuf_avail.exit.thread.i17, label %strbuf_avail.exit.i13

strbuf_avail.exit.i13:                            ; preds = %17
  %19 = load i64, ptr %9, align 8, !tbaa !12
  %.neg.i14 = add i64 %19, 1
  %.not.i15 = icmp eq i64 %18, %.neg.i14
  br i1 %.not.i15, label %strbuf_avail.exit.thread.i17, label %strbuf_addch.exit21

strbuf_avail.exit.thread.i17:                     ; preds = %strbuf_avail.exit.i13, %17
  tail call void @strbuf_grow(ptr noundef nonnull %0, i64 noundef 1) #12
  %.pre.i19 = load i64, ptr %9, align 8, !tbaa !12
  %.pre7.i20 = add i64 %.pre.i19, 1
  br label %strbuf_addch.exit21

strbuf_addch.exit21:                              ; preds = %strbuf_avail.exit.i13, %strbuf_avail.exit.thread.i17
  %.pre-phi.i16 = phi i64 [ %.pre7.i20, %strbuf_avail.exit.thread.i17 ], [ %.neg.i14, %strbuf_avail.exit.i13 ]
  %20 = phi i64 [ %.pre.i19, %strbuf_avail.exit.thread.i17 ], [ %19, %strbuf_avail.exit.i13 ]
  %21 = load ptr, ptr %7, align 8, !tbaa !4
  store i64 %.pre-phi.i16, ptr %9, align 8, !tbaa !12
  %22 = getelementptr inbounds nuw i8, ptr %21, i64 %20
  store i8 92, ptr %22, align 1, !tbaa !13
  %23 = load ptr, ptr %7, align 8, !tbaa !4
  %24 = load i64, ptr %9, align 8, !tbaa !12
  %25 = getelementptr inbounds nuw i8, ptr %23, i64 %24
  store i8 0, ptr %25, align 1, !tbaa !13
  br label %26

26:                                               ; preds = %14, %strbuf_addch.exit21
  %27 = load i64, ptr %0, align 8, !tbaa !11
  %.not.i.i22 = icmp eq i64 %27, 0
  br i1 %.not.i.i22, label %strbuf_avail.exit.thread.i27, label %strbuf_avail.exit.i23

strbuf_avail.exit.i23:                            ; preds = %26
  %28 = load i64, ptr %9, align 8, !tbaa !12
  %.neg.i24 = add i64 %28, 1
  %.not.i25 = icmp eq i64 %27, %.neg.i24
  br i1 %.not.i25, label %strbuf_avail.exit.thread.i27, label %strbuf_addch.exit31

strbuf_avail.exit.thread.i27:                     ; preds = %strbuf_avail.exit.i23, %26
  tail call void @strbuf_grow(ptr noundef nonnull %0, i64 noundef 1) #12
  %.pre.i29 = load i64, ptr %9, align 8, !tbaa !12
  %.pre7.i30 = add i64 %.pre.i29, 1
  br label %strbuf_addch.exit31

strbuf_addch.exit31:                              ; preds = %strbuf_avail.exit.i23, %strbuf_avail.exit.thread.i27
  %.pre-phi.i26 = phi i64 [ %.pre7.i30, %strbuf_avail.exit.thread.i27 ], [ %.neg.i24, %strbuf_avail.exit.i23 ]
  %29 = phi i64 [ %.pre.i29, %strbuf_avail.exit.thread.i27 ], [ %28, %strbuf_avail.exit.i23 ]
  %30 = load ptr, ptr %7, align 8, !tbaa !4
  store i64 %.pre-phi.i26, ptr %9, align 8, !tbaa !12
  %31 = getelementptr inbounds nuw i8, ptr %30, i64 %29
  store i8 %16, ptr %31, align 1, !tbaa !13
  %32 = load ptr, ptr %7, align 8, !tbaa !4
  %33 = load i64, ptr %9, align 8, !tbaa !12
  %34 = getelementptr inbounds nuw i8, ptr %32, i64 %33
  store i8 0, ptr %34, align 1, !tbaa !13
  br label %.backedge

35:                                               ; preds = %14
  tail call void @strbuf_add(ptr noundef nonnull %0, ptr noundef nonnull @.str.4, i64 noundef 2) #12
  br label %.backedge

36:                                               ; preds = %14
  tail call void @strbuf_add(ptr noundef nonnull %0, ptr noundef nonnull @.str.5, i64 noundef 2) #12
  br label %.backedge

37:                                               ; preds = %14
  tail call void @strbuf_add(ptr noundef nonnull %0, ptr noundef nonnull @.str.6, i64 noundef 2) #12
  br label %.backedge

38:                                               ; preds = %14
  tail call void @strbuf_add(ptr noundef nonnull %0, ptr noundef nonnull @.str.7, i64 noundef 2) #12
  br label %.backedge

39:                                               ; preds = %14
  tail call void @strbuf_add(ptr noundef nonnull %0, ptr noundef nonnull @.str.8, i64 noundef 2) #12
  br label %.backedge

.backedge:                                        ; preds = %39, %38, %37, %36, %35, %strbuf_addch.exit31
  br label %14, !llvm.loop !31

40:                                               ; preds = %14
  %41 = load i64, ptr %0, align 8, !tbaa !11
  %.not.i.i32 = icmp eq i64 %41, 0
  br i1 %.not.i.i32, label %strbuf_avail.exit.thread.i37, label %strbuf_avail.exit.i33

strbuf_avail.exit.i33:                            ; preds = %40
  %42 = load i64, ptr %9, align 8, !tbaa !12
  %.neg.i34 = add i64 %42, 1
  %.not.i35 = icmp eq i64 %41, %.neg.i34
  br i1 %.not.i35, label %strbuf_avail.exit.thread.i37, label %strbuf_addch.exit41

strbuf_avail.exit.thread.i37:                     ; preds = %strbuf_avail.exit.i33, %40
  tail call void @strbuf_grow(ptr noundef nonnull %0, i64 noundef 1) #12
  %.pre.i39 = load i64, ptr %9, align 8, !tbaa !12
  %.pre7.i40 = add i64 %.pre.i39, 1
  br label %strbuf_addch.exit41

strbuf_addch.exit41:                              ; preds = %strbuf_avail.exit.i33, %strbuf_avail.exit.thread.i37
  %.pre-phi.i36 = phi i64 [ %.pre7.i40, %strbuf_avail.exit.thread.i37 ], [ %.neg.i34, %strbuf_avail.exit.i33 ]
  %43 = phi i64 [ %.pre.i39, %strbuf_avail.exit.thread.i37 ], [ %42, %strbuf_avail.exit.i33 ]
  %44 = load ptr, ptr %7, align 8, !tbaa !4
  store i64 %.pre-phi.i36, ptr %9, align 8, !tbaa !12
  %45 = getelementptr inbounds nuw i8, ptr %44, i64 %43
  store i8 34, ptr %45, align 1, !tbaa !13
  %46 = load ptr, ptr %7, align 8, !tbaa !4
  %47 = load i64, ptr %9, align 8, !tbaa !12
  %48 = getelementptr inbounds nuw i8, ptr %46, i64 %47
  store i8 0, ptr %48, align 1, !tbaa !13
  ret void
}